; Function Attrs: mustprogress nofree norecurse nosync nounwind willreturn memory(argmem: readwrite) uwtable
define hidden void @ma_channel_map_copy(ptr noundef writeonly captures(address_is_null) %0, ptr noundef readonly captures(address_is_null) %1, i32 noundef %2) local_unnamed_addr #18 {
  %4 = icmp ne ptr %0, null
  %5 = icmp ne ptr %1, null
  %or.cond = and i1 %4, %5
  %6 = icmp ne i32 %2, 0
  %or.cond3 = and i1 %or.cond, %6
  br i1 %or.cond3, label %7, label %9

7:                                                ; preds = %3
  %8 = zext i32 %2 to i64
  tail call void @llvm.memcpy.p0.p0.i64(ptr nonnull align 1 %0, ptr nonnull align 1 %1, i64 %8, i1 false)
  br label %9

9:                                                ; preds = %7, %3
  ret void
}